; Function Attrs: uwtable
define void @_ZN9grpc_core5Party27CancelRemainingParticipantsEv(ptr noundef nonnull align 8 dereferenceable(168) %this) local_unnamed_addr #13 align 2 personality ptr @__gxx_personality_v0 {
entry:
  br i1 icmp ne (ptr @_ZTHN9grpc_core8Activity19g_current_activity_E, ptr null), label %0, label %_ZTWN9grpc_core8Activity19g_current_activity_E.exit.i

0:                                                ; preds = %entry
  tail call void @_ZTHN9grpc_core8Activity19g_current_activity_E()
  br label %_ZTWN9grpc_core8Activity19g_current_activity_E.exit.i

_ZTWN9grpc_core8Activity19g_current_activity_E.exit.i: ; preds = %0, %entry
  %1 = tail call noundef align 8 ptr @llvm.threadlocal.address.p0(ptr align 8 @_ZN9grpc_core8Activity19g_current_activity_E)
  %2 = load ptr, ptr %1, align 8
  br i1 icmp ne (ptr @_ZTHN9grpc_core8Activity19g_current_activity_E, ptr null), label %3, label %_ZN9grpc_core8Activity14ScopedActivityC2EPS0_.exit

3:                                                ; preds = %_ZTWN9grpc_core8Activity19g_current_activity_E.exit.i
  tail call void @_ZTHN9grpc_core8Activity19g_current_activity_E()
  br label %_ZN9grpc_core8Activity14ScopedActivityC2EPS0_.exit

_ZN9grpc_core8Activity14ScopedActivityC2EPS0_.exit: ; preds = %_ZTWN9grpc_core8Activity19g_current_activity_E.exit.i, %3
  store ptr %this, ptr %1, align 8
  %arena_ = getelementptr inbounds i8, ptr %this, i64 24
  %4 = load ptr, ptr %arena_, align 8
  %5 = tail call align 8 ptr @llvm.threadlocal.address.p0(ptr align 8 @_ZN9grpc_core14promise_detail7ContextINS_5ArenaEE8current_E)
  %6 = load ptr, ptr %5, align 8
  store ptr %4, ptr %5, align 8
  %participants_ = getelementptr inbounds i8, ptr %this, i64 40
  br label %for.body

for.body:                                         ; preds = %_ZN9grpc_core8Activity14ScopedActivityC2EPS0_.exit, %for.inc
  %i.09 = phi i64 [ 0, %_ZN9grpc_core8Activity14ScopedActivityC2EPS0_.exit ], [ %inc, %for.inc ]
  %arrayidx = getelementptr inbounds [16 x %"struct.std::atomic.2"], ptr %participants_, i64 0, i64 %i.09
  %7 = atomicrmw xchg ptr %arrayidx, i64 0 acquire, align 8
  %tobool.not = icmp eq i64 %7, 0
  br i1 %tobool.not, label %for.inc, label %if.then

if.then:                                          ; preds = %for.body
  %atomic-temp.i.0.i = inttoptr i64 %7 to ptr
  %vtable = load ptr, ptr %atomic-temp.i.0.i, align 8
  %vfn = getelementptr inbounds i8, ptr %vtable, i64 8
  %8 = load ptr, ptr %vfn, align 8
  invoke void %8(ptr noundef nonnull align 8 dereferenceable(32) %atomic-temp.i.0.i)
          to label %for.inc unwind label %lpad2

lpad2:                                            ; preds = %if.then
  %9 = landingpad { ptr, i32 }
          cleanup
  store ptr %6, ptr %5, align 8
  br i1 icmp ne (ptr @_ZTHN9grpc_core8Activity19g_current_activity_E, ptr null), label %10, label %_ZN9grpc_core8Activity14ScopedActivityD2Ev.exit

10:                                               ; preds = %lpad2
  tail call void @_ZTHN9grpc_core8Activity19g_current_activity_E() #26
  br label %_ZN9grpc_core8Activity14ScopedActivityD2Ev.exit

_ZN9grpc_core8Activity14ScopedActivityD2Ev.exit:  ; preds = %lpad2, %10
  store ptr %2, ptr %1, align 8
  resume { ptr, i32 } %9

for.inc:                                          ; preds = %for.body, %if.then
  %inc = add nuw nsw i64 %i.09, 1
  %exitcond.not = icmp eq i64 %inc, 16
  br i1 %exitcond.not, label %for.end, label %for.body, !llvm.loop !6

for.end:                                          ; preds = %for.inc
  store ptr %6, ptr %5, align 8
  br i1 icmp ne (ptr @_ZTHN9grpc_core8Activity19g_current_activity_E, ptr null), label %11, label %_ZN9grpc_core8Activity14ScopedActivityD2Ev.exit6

11:                                               ; preds = %for.end
  tail call void @_ZTHN9grpc_core8Activity19g_current_activity_E() #26
  br label %_ZN9grpc_core8Activity14ScopedActivityD2Ev.exit6

_ZN9grpc_core8Activity14ScopedActivityD2Ev.exit6: ; preds = %for.end, %11
  store ptr %2, ptr %1, align 8
  ret void
}